target datalayout = "e-m:e-p270:32:32-p271:32:32-p272:64:64-i64:64-i128:128-f80:128-n8:16:32:64-S128"
target triple = "x86_64-pc-linux-gnu"

%struct.ExprEvalStep = type { i64, ptr, ptr, %union.anon }
%union.anon = type { %struct.anon.23 }
%struct.anon.23 = type { ptr, ptr, i32, i32, ptr, ptr }
%struct.FunctionCallInfoBaseData = type { ptr, ptr, ptr, i32, i8, i16, [0 x %struct.NullableDatum] }
%struct.NullableDatum = type { i64, i8 }
%union.anon.48 = type { %struct.FunctionCallInfoBaseData }
%struct.anon.16 = type { ptr }
%struct.SQLValueFunction = type { %struct.Expr, i32, i32, i32, i32 }
%struct.Expr = type { i32 }

; Function Attrs: inlinehint nounwind uwtable
define internal i64 @Int64GetDatum(i64 noundef %0) #2 {
  %2 = alloca i64, align 8
  store i64 %0, ptr %2, align 8
  %3 = load i64, ptr %2, align 8
  ret i64 %3
}

; Function Attrs: inlinehint nounwind uwtable
define internal i64 @PointerGetDatum(ptr noundef %0) #2 {
  %2 = alloca ptr, align 8
  store ptr %0, ptr %2, align 8
  %3 = load ptr, ptr %2, align 8
  %4 = ptrtoint ptr %3 to i64
  ret i64 %4
}

; Function Attrs: inlinehint nounwind uwtable
define internal i64 @Int32GetDatum(i32 noundef %0) #2 {
  %2 = alloca i32, align 4
  store i32 %0, ptr %2, align 4
  %3 = load i32, ptr %2, align 4
  %4 = sext i32 %3 to i64
  ret i64 %4
}

; Function Attrs: inlinehint nounwind uwtable
define internal i64 @TimestampGetDatum(i64 noundef %0) #2 {
  %2 = alloca i64, align 8
  store i64 %0, ptr %2, align 8
  %3 = load i64, ptr %2, align 8
  %4 = call i64 @Int64GetDatum(i64 noundef %3)
  ret i64 %4
}

; Function Attrs: inlinehint nounwind uwtable
define internal i64 @TimeADTGetDatum(i64 noundef %0) #2 {
  %2 = alloca i64, align 8
  store i64 %0, ptr %2, align 8
  %3 = load i64, ptr %2, align 8
  %4 = call i64 @Int64GetDatum(i64 noundef %3)
  ret i64 %4
}

; Function Attrs: inlinehint nounwind uwtable
define internal i64 @TimestampTzGetDatum(i64 noundef %0) #2 {
  %2 = alloca i64, align 8
  store i64 %0, ptr %2, align 8
  %3 = load i64, ptr %2, align 8
  %4 = call i64 @Int64GetDatum(i64 noundef %3)
  ret i64 %4
}

; Function Attrs: inlinehint nounwind uwtable
define internal i64 @TimeTzADTPGetDatum(ptr noundef %0) #2 {
  %2 = alloca ptr, align 8
  store ptr %0, ptr %2, align 8
  %3 = load ptr, ptr %2, align 8
  %4 = call i64 @PointerGetDatum(ptr noundef %3)
  ret i64 %4
}

; Function Attrs: inlinehint nounwind uwtable
define internal i64 @DateADTGetDatum(i32 noundef %0) #2 {
  %2 = alloca i32, align 4
  store i32 %0, ptr %2, align 4
  %3 = load i32, ptr %2, align 4
  %4 = call i64 @Int32GetDatum(i32 noundef %3)
  ret i64 %4
}

; Function Attrs: nounwind uwtable
define dso_local void @ExecEvalSQLValueFunction(ptr noundef %0, ptr noundef %1) #0 {
  %3 = alloca ptr, align 8
  %4 = alloca ptr, align 8
  %5 = alloca %union.anon.48, align 8
  %6 = alloca ptr, align 8
  %7 = alloca ptr, align 8
  store ptr %0, ptr %3, align 8
  store ptr %1, ptr %4, align 8
  call void @llvm.lifetime.start.p0(i64 32, ptr %5) #11
  call void @llvm.lifetime.start.p0(i64 8, ptr %6) #11
  store ptr %5, ptr %6, align 8
  call void @llvm.lifetime.start.p0(i64 8, ptr %7) #11
  %8 = load ptr, ptr %4, align 8
  %9 = getelementptr inbounds nuw %struct.ExprEvalStep, ptr %8, i32 0, i32 3
  %10 = getelementptr inbounds nuw %struct.anon.16, ptr %9, i32 0, i32 0
  %11 = load ptr, ptr %10, align 8
  store ptr %11, ptr %7, align 8
  %12 = load ptr, ptr %4, align 8
  %13 = getelementptr inbounds nuw %struct.ExprEvalStep, ptr %12, i32 0, i32 2
  %14 = load ptr, ptr %13, align 8
  store i8 0, ptr %14, align 1
  %15 = load ptr, ptr %7, align 8
  %16 = getelementptr inbounds nuw %struct.SQLValueFunction, ptr %15, i32 0, i32 1
  %17 = load i32, ptr %16, align 4
  switch i32 %17, label %176 [
    i32 0, label %18
    i32 1, label %24
    i32 2, label %24
    i32 3, label %33
    i32 4, label %33
    i32 5, label %42
    i32 6, label %42
    i32 7, label %51
    i32 8, label %51
    i32 9, label %60
    i32 10, label %60
    i32 11, label %60
    i32 12, label %89
    i32 13, label %118
    i32 14, label %147
  ]

18:                                               ; preds = %2
  %19 = call i32 @GetSQLCurrentDate()
  %20 = call i64 @DateADTGetDatum(i32 noundef %19)
  %21 = load ptr, ptr %4, align 8
  %22 = getelementptr inbounds nuw %struct.ExprEvalStep, ptr %21, i32 0, i32 1
  %23 = load ptr, ptr %22, align 8
  store i64 %20, ptr %23, align 8
  br label %176

24:                                               ; preds = %2, %2
  %25 = load ptr, ptr %7, align 8
  %26 = getelementptr inbounds nuw %struct.SQLValueFunction, ptr %25, i32 0, i32 3
  %27 = load i32, ptr %26, align 4
  %28 = call ptr @GetSQLCurrentTime(i32 noundef %27)
  %29 = call i64 @TimeTzADTPGetDatum(ptr noundef %28)
  %30 = load ptr, ptr %4, align 8
  %31 = getelementptr inbounds nuw %struct.ExprEvalStep, ptr %30, i32 0, i32 1
  %32 = load ptr, ptr %31, align 8
  store i64 %29, ptr %32, align 8
  br label %176

33:                                               ; preds = %2, %2
  %34 = load ptr, ptr %7, align 8
  %35 = getelementptr inbounds nuw %struct.SQLValueFunction, ptr %34, i32 0, i32 3
  %36 = load i32, ptr %35, align 4
  %37 = call i64 @GetSQLCurrentTimestamp(i32 noundef %36)
  %38 = call i64 @TimestampTzGetDatum(i64 noundef %37)
  %39 = load ptr, ptr %4, align 8
  %40 = getelementptr inbounds nuw %struct.ExprEvalStep, ptr %39, i32 0, i32 1
  %41 = load ptr, ptr %40, align 8
  store i64 %38, ptr %41, align 8
  br label %176

42:                                               ; preds = %2, %2
  %43 = load ptr, ptr %7, align 8
  %44 = getelementptr inbounds nuw %struct.SQLValueFunction, ptr %43, i32 0, i32 3
  %45 = load i32, ptr %44, align 4
  %46 = call i64 @GetSQLLocalTime(i32 noundef %45)
  %47 = call i64 @TimeADTGetDatum(i64 noundef %46)
  %48 = load ptr, ptr %4, align 8
  %49 = getelementptr inbounds nuw %struct.ExprEvalStep, ptr %48, i32 0, i32 1
  %50 = load ptr, ptr %49, align 8
  store i64 %47, ptr %50, align 8
  br label %176

51:                                               ; preds = %2, %2
  %52 = load ptr, ptr %7, align 8
  %53 = getelementptr inbounds nuw %struct.SQLValueFunction, ptr %52, i32 0, i32 3
  %54 = load i32, ptr %53, align 4
  %55 = call i64 @GetSQLLocalTimestamp(i32 noundef %54)
  %56 = call i64 @TimestampGetDatum(i64 noundef %55)
  %57 = load ptr, ptr %4, align 8
  %58 = getelementptr inbounds nuw %struct.ExprEvalStep, ptr %57, i32 0, i32 1
  %59 = load ptr, ptr %58, align 8
  store i64 %56, ptr %59, align 8
  br label %176

60:                                               ; preds = %2, %2, %2
  br label %61

61:                                               ; preds = %60
  %62 = load ptr, ptr %6, align 8
  %63 = getelementptr inbounds nuw %struct.FunctionCallInfoBaseData, ptr %62, i32 0, i32 0
  store ptr null, ptr %63, align 8
  %64 = load ptr, ptr %6, align 8
  %65 = getelementptr inbounds nuw %struct.FunctionCallInfoBaseData, ptr %64, i32 0, i32 1
  store ptr null, ptr %65, align 8
  %66 = load ptr, ptr %6, align 8
  %67 = getelementptr inbounds nuw %struct.FunctionCallInfoBaseData, ptr %66, i32 0, i32 2
  store ptr null, ptr %67, align 8
  %68 = load ptr, ptr %6, align 8
  %69 = getelementptr inbounds nuw %struct.FunctionCallInfoBaseData, ptr %68, i32 0, i32 3
  store i32 0, ptr %69, align 8
  %70 = load ptr, ptr %6, align 8
  %71 = getelementptr inbounds nuw %struct.FunctionCallInfoBaseData, ptr %70, i32 0, i32 4
  store i8 0, ptr %71, align 4
  %72 = load ptr, ptr %6, align 8
  %73 = getelementptr inbounds nuw %struct.FunctionCallInfoBaseData, ptr %72, i32 0, i32 5
  store i16 0, ptr %73, align 2
  br label %74

74:                                               ; preds = %61
  br label %75

75:                                               ; preds = %74
  %76 = load ptr, ptr %6, align 8
  %77 = call i64 @current_user(ptr noundef %76)
  %78 = load ptr, ptr %4, align 8
  %79 = getelementptr inbounds nuw %struct.ExprEvalStep, ptr %78, i32 0, i32 1
  %80 = load ptr, ptr %79, align 8
  store i64 %77, ptr %80, align 8
  %81 = load ptr, ptr %6, align 8
  %82 = getelementptr inbounds nuw %struct.FunctionCallInfoBaseData, ptr %81, i32 0, i32 4
  %83 = load i8, ptr %82, align 4, !range !7, !noundef !8
  %84 = trunc i8 %83 to i1
  %85 = load ptr, ptr %4, align 8
  %86 = getelementptr inbounds nuw %struct.ExprEvalStep, ptr %85, i32 0, i32 2
  %87 = load ptr, ptr %86, align 8
  %88 = zext i1 %84 to i8
  store i8 %88, ptr %87, align 1
  br label %176

89:                                               ; preds = %2
  br label %90

90:                                               ; preds = %89
  %91 = load ptr, ptr %6, align 8
  %92 = getelementptr inbounds nuw %struct.FunctionCallInfoBaseData, ptr %91, i32 0, i32 0
  store ptr null, ptr %92, align 8
  %93 = load ptr, ptr %6, align 8
  %94 = getelementptr inbounds nuw %struct.FunctionCallInfoBaseData, ptr %93, i32 0, i32 1
  store ptr null, ptr %94, align 8
  %95 = load ptr, ptr %6, align 8
  %96 = getelementptr inbounds nuw %struct.FunctionCallInfoBaseData, ptr %95, i32 0, i32 2
  store ptr null, ptr %96, align 8
  %97 = load ptr, ptr %6, align 8
  %98 = getelementptr inbounds nuw %struct.FunctionCallInfoBaseData, ptr %97, i32 0, i32 3
  store i32 0, ptr %98, align 8
  %99 = load ptr, ptr %6, align 8
  %100 = getelementptr inbounds nuw %struct.FunctionCallInfoBaseData, ptr %99, i32 0, i32 4
  store i8 0, ptr %100, align 4
  %101 = load ptr, ptr %6, align 8
  %102 = getelementptr inbounds nuw %struct.FunctionCallInfoBaseData, ptr %101, i32 0, i32 5
  store i16 0, ptr %102, align 2
  br label %103

103:                                              ; preds = %90
  br label %104

104:                                              ; preds = %103
  %105 = load ptr, ptr %6, align 8
  %106 = call i64 @session_user(ptr noundef %105)
  %107 = load ptr, ptr %4, align 8
  %108 = getelementptr inbounds nuw %struct.ExprEvalStep, ptr %107, i32 0, i32 1
  %109 = load ptr, ptr %108, align 8
  store i64 %106, ptr %109, align 8
  %110 = load ptr, ptr %6, align 8
  %111 = getelementptr inbounds nuw %struct.FunctionCallInfoBaseData, ptr %110, i32 0, i32 4
  %112 = load i8, ptr %111, align 4, !range !7, !noundef !8
  %113 = trunc i8 %112 to i1
  %114 = load ptr, ptr %4, align 8
  %115 = getelementptr inbounds nuw %struct.ExprEvalStep, ptr %114, i32 0, i32 2
  %116 = load ptr, ptr %115, align 8
  %117 = zext i1 %113 to i8
  store i8 %117, ptr %116, align 1
  br label %176

118:                                              ; preds = %2
  br label %119

119:                                              ; preds = %118
  %120 = load ptr, ptr %6, align 8
  %121 = getelementptr inbounds nuw %struct.FunctionCallInfoBaseData, ptr %120, i32 0, i32 0
  store ptr null, ptr %121, align 8
  %122 = load ptr, ptr %6, align 8
  %123 = getelementptr inbounds nuw %struct.FunctionCallInfoBaseData, ptr %122, i32 0, i32 1
  store ptr null, ptr %123, align 8
  %124 = load ptr, ptr %6, align 8
  %125 = getelementptr inbounds nuw %struct.FunctionCallInfoBaseData, ptr %124, i32 0, i32 2
  store ptr null, ptr %125, align 8
  %126 = load ptr, ptr %6, align 8
  %127 = getelementptr inbounds nuw %struct.FunctionCallInfoBaseData, ptr %126, i32 0, i32 3
  store i32 0, ptr %127, align 8
  %128 = load ptr, ptr %6, align 8
  %129 = getelementptr inbounds nuw %struct.FunctionCallInfoBaseData, ptr %128, i32 0, i32 4
  store i8 0, ptr %129, align 4
  %130 = load ptr, ptr %6, align 8
  %131 = getelementptr inbounds nuw %struct.FunctionCallInfoBaseData, ptr %130, i32 0, i32 5
  store i16 0, ptr %131, align 2
  br label %132

132:                                              ; preds = %119
  br label %133

133:                                              ; preds = %132
  %134 = load ptr, ptr %6, align 8
  %135 = call i64 @current_database(ptr noundef %134)
  %136 = load ptr, ptr %4, align 8
  %137 = getelementptr inbounds nuw %struct.ExprEvalStep, ptr %136, i32 0, i32 1
  %138 = load ptr, ptr %137, align 8
  store i64 %135, ptr %138, align 8
  %139 = load ptr, ptr %6, align 8
  %140 = getelementptr inbounds nuw %struct.FunctionCallInfoBaseData, ptr %139, i32 0, i32 4
  %141 = load i8, ptr %140, align 4, !range !7, !noundef !8
  %142 = trunc i8 %141 to i1
  %143 = load ptr, ptr %4, align 8
  %144 = getelementptr inbounds nuw %struct.ExprEvalStep, ptr %143, i32 0, i32 2
  %145 = load ptr, ptr %144, align 8
  %146 = zext i1 %142 to i8
  store i8 %146, ptr %145, align 1
  br label %176

147:                                              ; preds = %2
  br label %148

148:                                              ; preds = %147
  %149 = load ptr, ptr %6, align 8
  %150 = getelementptr inbounds nuw %struct.FunctionCallInfoBaseData, ptr %149, i32 0, i32 0
  store ptr null, ptr %150, align 8
  %151 = load ptr, ptr %6, align 8
  %152 = getelementptr inbounds nuw %struct.FunctionCallInfoBaseData, ptr %151, i32 0, i32 1
  store ptr null, ptr %152, align 8
  %153 = load ptr, ptr %6, align 8
  %154 = getelementptr inbounds nuw %struct.FunctionCallInfoBaseData, ptr %153, i32 0, i32 2
  store ptr null, ptr %154, align 8
  %155 = load ptr, ptr %6, align 8
  %156 = getelementptr inbounds nuw %struct.FunctionCallInfoBaseData, ptr %155, i32 0, i32 3
  store i32 0, ptr %156, align 8
  %157 = load ptr, ptr %6, align 8
  %158 = getelementptr inbounds nuw %struct.FunctionCallInfoBaseData, ptr %157, i32 0, i32 4
  store i8 0, ptr %158, align 4
  %159 = load ptr, ptr %6, align 8
  %160 = getelementptr inbounds nuw %struct.FunctionCallInfoBaseData, ptr %159, i32 0, i32 5
  store i16 0, ptr %160, align 2
  br label %161

161:                                              ; preds = %148
  br label %162

162:                                              ; preds = %161
  %163 = load ptr, ptr %6, align 8
  %164 = call i64 @current_schema(ptr noundef %163)
  %165 = load ptr, ptr %4, align 8
  %166 = getelementptr inbounds nuw %struct.ExprEvalStep, ptr %165, i32 0, i32 1
  %167 = load ptr, ptr %166, align 8
  store i64 %164, ptr %167, align 8
  %168 = load ptr, ptr %6, align 8
  %169 = getelementptr inbounds nuw %struct.FunctionCallInfoBaseData, ptr %168, i32 0, i32 4
  %170 = load i8, ptr %169, align 4, !range !7, !noundef !8
  %171 = trunc i8 %170 to i1
  %172 = load ptr, ptr %4, align 8
  %173 = getelementptr inbounds nuw %struct.ExprEvalStep, ptr %172, i32 0, i32 2
  %174 = load ptr, ptr %173, align 8
  %175 = zext i1 %171 to i8
  store i8 %175, ptr %174, align 1
  br label %176

176:                                              ; preds = %2, %162, %133, %104, %75, %51, %42, %33, %24, %18
  call void @llvm.lifetime.end.p0(i64 8, ptr %7) #11
  call void @llvm.lifetime.end.p0(i64 8, ptr %6) #11
  call void @llvm.lifetime.end.p0(i64 32, ptr %5) #11
  ret void
}