; Function Attrs: nounwind uwtable
define dso_local void @ExecEvalSQLValueFunction(ptr readnone captures(none) %0, ptr noundef readonly captures(none) %1) local_unnamed_addr #0 {
  %3 = alloca %union.anon.48, align 8
  call void @llvm.lifetime.start.p0(i64 32, ptr nonnull %3) #18
  %4 = getelementptr inbounds nuw i8, ptr %1, i64 24
  %5 = load ptr, ptr %4, align 8
  %6 = getelementptr inbounds nuw i8, ptr %1, i64 16
  %7 = load ptr, ptr %6, align 8
  store i8 0, ptr %7, align 1
  %8 = getelementptr inbounds nuw i8, ptr %5, i64 4
  %9 = load i32, ptr %8, align 4
  switch i32 %9, label %72 [
    i32 0, label %10
    i32 1, label %15
    i32 2, label %15
    i32 3, label %22
    i32 4, label %22
    i32 5, label %28
    i32 6, label %28
    i32 7, label %34
    i32 8, label %34
    i32 9, label %40
    i32 10, label %40
    i32 11, label %40
    i32 12, label %48
    i32 13, label %56
    i32 14, label %64
  ]

10:                                               ; preds = %2
  %11 = tail call i32 @GetSQLCurrentDate() #18
  %12 = sext i32 %11 to i64
  %13 = getelementptr inbounds nuw i8, ptr %1, i64 8
  %14 = load ptr, ptr %13, align 8
  store i64 %12, ptr %14, align 8
  br label %72

15:                                               ; preds = %2, %2
  %16 = getelementptr inbounds nuw i8, ptr %5, i64 12
  %17 = load i32, ptr %16, align 4
  %18 = tail call ptr @GetSQLCurrentTime(i32 noundef %17) #18
  %19 = ptrtoint ptr %18 to i64
  %20 = getelementptr inbounds nuw i8, ptr %1, i64 8
  %21 = load ptr, ptr %20, align 8
  store i64 %19, ptr %21, align 8
  br label %72

22:                                               ; preds = %2, %2
  %23 = getelementptr inbounds nuw i8, ptr %5, i64 12
  %24 = load i32, ptr %23, align 4
  %25 = tail call i64 @GetSQLCurrentTimestamp(i32 noundef %24) #18
  %26 = getelementptr inbounds nuw i8, ptr %1, i64 8
  %27 = load ptr, ptr %26, align 8
  store i64 %25, ptr %27, align 8
  br label %72

28:                                               ; preds = %2, %2
  %29 = getelementptr inbounds nuw i8, ptr %5, i64 12
  %30 = load i32, ptr %29, align 4
  %31 = tail call i64 @GetSQLLocalTime(i32 noundef %30) #18
  %32 = getelementptr inbounds nuw i8, ptr %1, i64 8
  %33 = load ptr, ptr %32, align 8
  store i64 %31, ptr %33, align 8
  br label %72

34:                                               ; preds = %2, %2
  %35 = getelementptr inbounds nuw i8, ptr %5, i64 12
  %36 = load i32, ptr %35, align 4
  %37 = tail call i64 @GetSQLLocalTimestamp(i32 noundef %36) #18
  %38 = getelementptr inbounds nuw i8, ptr %1, i64 8
  %39 = load ptr, ptr %38, align 8
  store i64 %37, ptr %39, align 8
  br label %72

40:                                               ; preds = %2, %2, %2
  %41 = getelementptr inbounds nuw i8, ptr %3, i64 28
  %42 = getelementptr inbounds nuw i8, ptr %3, i64 30
  store i16 0, ptr %42, align 2
  call void @llvm.memset.p0.i64(ptr noundef nonnull align 8 dereferenceable(29) %3, i8 0, i64 29, i1 false)
  %43 = call i64 @current_user(ptr noundef nonnull %3) #18
  %44 = getelementptr inbounds nuw i8, ptr %1, i64 8
  %45 = load ptr, ptr %44, align 8
  store i64 %43, ptr %45, align 8
  %46 = load i8, ptr %41, align 4, !range !8, !noundef !9
  %47 = load ptr, ptr %6, align 8
  store i8 %46, ptr %47, align 1
  br label %72

48:                                               ; preds = %2
  %49 = getelementptr inbounds nuw i8, ptr %3, i64 28
  %50 = getelementptr inbounds nuw i8, ptr %3, i64 30
  store i16 0, ptr %50, align 2
  call void @llvm.memset.p0.i64(ptr noundef nonnull align 8 dereferenceable(29) %3, i8 0, i64 29, i1 false)
  %51 = call i64 @session_user(ptr noundef nonnull %3) #18
  %52 = getelementptr inbounds nuw i8, ptr %1, i64 8
  %53 = load ptr, ptr %52, align 8
  store i64 %51, ptr %53, align 8
  %54 = load i8, ptr %49, align 4, !range !8, !noundef !9
  %55 = load ptr, ptr %6, align 8
  store i8 %54, ptr %55, align 1
  br label %72

56:                                               ; preds = %2
  %57 = getelementptr inbounds nuw i8, ptr %3, i64 28
  %58 = getelementptr inbounds nuw i8, ptr %3, i64 30
  store i16 0, ptr %58, align 2
  call void @llvm.memset.p0.i64(ptr noundef nonnull align 8 dereferenceable(29) %3, i8 0, i64 29, i1 false)
  %59 = call i64 @current_database(ptr noundef nonnull %3) #18
  %60 = getelementptr inbounds nuw i8, ptr %1, i64 8
  %61 = load ptr, ptr %60, align 8
  store i64 %59, ptr %61, align 8
  %62 = load i8, ptr %57, align 4, !range !8, !noundef !9
  %63 = load ptr, ptr %6, align 8
  store i8 %62, ptr %63, align 1
  br label %72

64:                                               ; preds = %2
  %65 = getelementptr inbounds nuw i8, ptr %3, i64 28
  %66 = getelementptr inbounds nuw i8, ptr %3, i64 30
  store i16 0, ptr %66, align 2
  call void @llvm.memset.p0.i64(ptr noundef nonnull align 8 dereferenceable(29) %3, i8 0, i64 29, i1 false)
  %67 = call i64 @current_schema(ptr noundef nonnull %3) #18
  %68 = getelementptr inbounds nuw i8, ptr %1, i64 8
  %69 = load ptr, ptr %68, align 8
  store i64 %67, ptr %69, align 8
  %70 = load i8, ptr %65, align 4, !range !8, !noundef !9
  %71 = load ptr, ptr %6, align 8
  store i8 %70, ptr %71, align 1
  br label %72

72:                                               ; preds = %64, %56, %48, %40, %34, %28, %22, %15, %10, %2
  call void @llvm.lifetime.end.p0(i64 32, ptr nonnull %3) #18
  ret void
}